; Function Attrs: nofree norecurse nosync nounwind memory(read, inaccessiblemem: none) uwtable
define i32 @Wln_NtkFaninNum(ptr noundef readonly captures(none) %0) local_unnamed_addr #7 {
  %2 = getelementptr i8, ptr %0, i64 76
  %.val = load i32, ptr %2, align 4, !tbaa !21
  %3 = icmp sgt i32 %.val, 1
  br i1 %3, label %.lr.ph, label %._crit_edge

.lr.ph:                                           ; preds = %1
  %4 = getelementptr i8, ptr %0, i64 88
  %.val7 = load ptr, ptr %4, align 8, !tbaa !25
  %wide.trip.count = zext nneg i32 %.val to i64
  br label %5

5:                                                ; preds = %.lr.ph, %5
  %indvars.iv = phi i64 [ 1, %.lr.ph ], [ %indvars.iv.next, %5 ]
  %.09 = phi i32 [ 0, %.lr.ph ], [ %8, %5 ]
  %6 = getelementptr inbounds nuw %struct.Wln_Vec_t_, ptr %.val7, i64 %indvars.iv, i32 1
  %7 = load i32, ptr %6, align 4, !tbaa !43
  %8 = add nsw i32 %7, %.09
  %indvars.iv.next = add nuw nsw i64 %indvars.iv, 1
  %exitcond.not = icmp eq i64 %indvars.iv.next, %wide.trip.count
  br i1 %exitcond.not, label %._crit_edge, label %5, !llvm.loop !102

._crit_edge:                                      ; preds = %5, %1
  %.0.lcssa = phi i32 [ 0, %1 ], [ %8, %5 ]
  ret i32 %.0.lcssa
}